target datalayout = "e-m:e-p270:32:32-p271:32:32-p272:64:64-i64:64-i128:128-f80:128-n8:16:32:64-S128"
target triple = "x86_64-pc-linux-gnu"

; Function Attrs: mustprogress nounwind uwtable
define hidden noundef ptr @_ZN5boost3log11v2_mt_posix3aux14char_constantsIcE17trim_spaces_rightEPKcS6_(ptr noundef %0, ptr noundef %1) #6 align 2 {
  %3 = alloca ptr, align 8
  %4 = alloca ptr, align 8
  store ptr %0, ptr %3, align 8, !tbaa !3
  store ptr %1, ptr %4, align 8, !tbaa !3
  br label %5

5:                                                ; preds = %18, %2
  %6 = load ptr, ptr %3, align 8, !tbaa !3
  %7 = load ptr, ptr %4, align 8, !tbaa !3
  %8 = icmp ne ptr %6, %7
  br i1 %8, label %9, label %16

9:                                                ; preds = %5
  %10 = load ptr, ptr %4, align 8, !tbaa !3
  %11 = getelementptr inbounds i8, ptr %10, i64 -1
  %12 = load i8, ptr %11, align 1, !tbaa !7
  %13 = sext i8 %12 to i32
  %14 = call i32 @isspace(i32 noundef %13) #14
  %15 = icmp ne i32 %14, 0
  br label %16

16:                                               ; preds = %9, %5
  %17 = phi i1 [ false, %5 ], [ %15, %9 ]
  br i1 %17, label %18, label %21

18:                                               ; preds = %16
  %19 = load ptr, ptr %4, align 8, !tbaa !3
  %20 = getelementptr inbounds i8, ptr %19, i32 -1
  store ptr %20, ptr %4, align 8, !tbaa !3
  br label %5, !llvm.loop !10

21:                                               ; preds = %16
  %22 = load ptr, ptr %4, align 8, !tbaa !3
  ret ptr %22
}