; Function Attrs: mustprogress nofree nounwind willreturn memory(read) uwtable
define hidden noundef ptr @_ZN5boost3log11v2_mt_posix3aux14char_constantsIcE17trim_spaces_rightEPKcS6_(ptr noundef readnone %0, ptr noundef readonly %1) local_unnamed_addr #3 align 2 {
  %3 = ptrtoint ptr %1 to i64
  %4 = ptrtoint ptr %0 to i64
  %5 = sub i64 %4, %3
  %scevgep = getelementptr i8, ptr %1, i64 %5
  br label %6

6:                                                ; preds = %7, %2
  %.0 = phi ptr [ %1, %2 ], [ %8, %7 ]
  %.not = icmp eq ptr %0, %.0
  br i1 %.not, label %.critedge, label %7

7:                                                ; preds = %6
  %8 = getelementptr inbounds i8, ptr %.0, i64 -1
  %9 = load i8, ptr %8, align 1, !tbaa !3
  %10 = sext i8 %9 to i32
  %11 = tail call i32 @isspace(i32 noundef %10) #9
  %.not5 = icmp eq i32 %11, 0
  br i1 %.not5, label %.critedge, label %6, !llvm.loop !8

.critedge:                                        ; preds = %6, %7
  %.0.lcssa = phi ptr [ %scevgep, %6 ], [ %.0, %7 ]
  ret ptr %.0.lcssa
}